target datalayout = "e-m:e-p270:32:32-p271:32:32-p272:64:64-i64:64-i128:128-f80:128-n8:16:32:64-S128"
target triple = "x86_64-pc-linux-gnu"

%struct.Vec_Int_t_ = type { i32, i32, ptr }
%struct.Prove_ParamsStruct_t_ = type { i32, i32, i32, i32, i32, i32, float, i32, float, i32, float, i32, i32, i32, i64, i64, i64, i64 }
%struct.Abc_Ntk_t_ = type { i32, i32, ptr, ptr, ptr, ptr, ptr, ptr, ptr, ptr, ptr, ptr, ptr, [11 x i32], i32, i32, i32, i32, ptr, i32, ptr, ptr, i32, i32, i32, double, i32, %struct.Vec_Int_t_, ptr, ptr, ptr, ptr, ptr, float, i32, ptr, ptr, ptr, ptr, ptr, ptr, ptr, ptr, ptr, ptr, ptr, ptr, ptr, ptr, ptr, ptr, ptr, ptr, ptr, ptr, ptr }
%struct.timespec = type { i64, i64 }

@.str.18 = private unnamed_addr constant [23 x i8] c"The networks are %s.  \00", align 1
@.str.19 = private unnamed_addr constant [11 x i8] c"equivalent\00", align 1
@.str.20 = private unnamed_addr constant [15 x i8] c"NOT equivalent\00", align 1
@.str.21 = private unnamed_addr constant [10 x i8] c"UNDECIDED\00", align 1
@.str.22 = private unnamed_addr constant [5 x i8] c"Time\00", align 1
@.str.33 = private unnamed_addr constant [5 x i8] c"%s =\00", align 1
@.str.34 = private unnamed_addr constant [11 x i8] c"%9.2f sec\0A\00", align 1

; Function Attrs: nounwind uwtable
define internal void @Abc_PrintTime(i32 noundef %0, ptr noundef %1, i64 noundef %2) #0 {
  %4 = alloca i32, align 4
  %5 = alloca ptr, align 8
  %6 = alloca i64, align 8
  store i32 %0, ptr %4, align 4
  store ptr %1, ptr %5, align 8
  store i64 %2, ptr %6, align 8
  %7 = load ptr, ptr %5, align 8
  call void (i32, ptr, ...) @Abc_Print(i32 noundef 1, ptr noundef @.str.33, ptr noundef %7)
  %8 = load i64, ptr %6, align 8
  %9 = sitofp i64 %8 to double
  %10 = fmul double 1.000000e+00, %9
  %11 = fdiv double %10, 1.000000e+06
  call void (i32, ptr, ...) @Abc_Print(i32 noundef 1, ptr noundef @.str.34, double noundef %11)
  ret void
}

; Function Attrs: nounwind uwtable
define internal i64 @Abc_Clock() #0 {
  %1 = alloca i64, align 8
  %2 = alloca %struct.timespec, align 8
  %3 = alloca i64, align 8
  %4 = call i32 @clock_gettime(i32 noundef 1, ptr noundef %2) #10
  %5 = icmp slt i32 %4, 0
  br i1 %5, label %6, label %7

6:                                                ; preds = %0
  store i64 -1, ptr %1, align 8
  br label %18

7:                                                ; preds = %0
  %8 = getelementptr inbounds %struct.timespec, ptr %2, i32 0, i32 0
  %9 = load i64, ptr %8, align 8
  %10 = mul nsw i64 %9, 1000000
  store i64 %10, ptr %3, align 8
  %11 = getelementptr inbounds %struct.timespec, ptr %2, i32 0, i32 1
  %12 = load i64, ptr %11, align 8
  %13 = mul nsw i64 %12, 1000000
  %14 = sdiv i64 %13, 1000000000
  %15 = load i64, ptr %3, align 8
  %16 = add nsw i64 %15, %14
  store i64 %16, ptr %3, align 8
  %17 = load i64, ptr %3, align 8
  store i64 %17, ptr %1, align 8
  br label %18

18:                                               ; preds = %7, %6
  %19 = load i64, ptr %1, align 8
  ret i64 %19
}

; Function Attrs: nounwind uwtable
define ptr @Acb_NtkSolve(ptr noundef %0) #0 {
  %2 = alloca ptr, align 8
  %3 = alloca ptr, align 8
  %4 = alloca ptr, align 8
  %5 = alloca ptr, align 8
  %6 = alloca %struct.Prove_ParamsStruct_t_, align 8
  %7 = alloca ptr, align 8
  %8 = alloca i64, align 8
  %9 = alloca i32, align 4
  %10 = alloca ptr, align 8
  store ptr %0, ptr %3, align 8
  %11 = load ptr, ptr %3, align 8
  %12 = call ptr @Gia_ManToAig(ptr noundef %11, i32 noundef 0)
  store ptr %12, ptr %4, align 8
  %13 = load ptr, ptr %4, align 8
  %14 = call ptr @Abc_NtkFromAigPhase(ptr noundef %13)
  store ptr %14, ptr %5, align 8
  store ptr %6, ptr %7, align 8
  %15 = load ptr, ptr %7, align 8
  call void @Prove_ParamsSetDefault(ptr noundef %15)
  %16 = load ptr, ptr %7, align 8
  %17 = getelementptr inbounds %struct.Prove_ParamsStruct_t_, ptr %16, i32 0, i32 1
  store i32 1, ptr %17, align 4
  %18 = load ptr, ptr %7, align 8
  %19 = getelementptr inbounds %struct.Prove_ParamsStruct_t_, ptr %18, i32 0, i32 3
  store i32 0, ptr %19, align 4
  %20 = load ptr, ptr %4, align 8
  call void @Aig_ManStop(ptr noundef %20)
  %21 = load ptr, ptr %5, align 8
  %22 = icmp ne ptr %21, null
  br i1 %22, label %23, label %51

23:                                               ; preds = %1
  %24 = call i64 @Abc_Clock()
  store i64 %24, ptr %8, align 8
  %25 = load ptr, ptr %7, align 8
  %26 = call i32 @Abc_NtkIvyProve(ptr noundef %5, ptr noundef %25)
  store i32 %26, ptr %9, align 4
  %27 = load ptr, ptr %5, align 8
  %28 = getelementptr inbounds %struct.Abc_Ntk_t_, ptr %27, i32 0, i32 37
  %29 = load ptr, ptr %28, align 8
  store ptr %29, ptr %10, align 8
  %30 = load ptr, ptr %5, align 8
  %31 = getelementptr inbounds %struct.Abc_Ntk_t_, ptr %30, i32 0, i32 37
  store ptr null, ptr %31, align 8
  %32 = load ptr, ptr %5, align 8
  call void @Abc_NtkDelete(ptr noundef %32)
  %33 = load i32, ptr %9, align 4
  %34 = icmp eq i32 %33, 1
  br i1 %34, label %35, label %36

35:                                               ; preds = %23
  br label %40

36:                                               ; preds = %23
  %37 = load i32, ptr %9, align 4
  %38 = icmp eq i32 %37, 0
  %39 = select i1 %38, ptr @.str.20, ptr @.str.21
  br label %40

40:                                               ; preds = %36, %35
  %41 = phi ptr [ @.str.19, %35 ], [ %39, %36 ]
  %42 = call i32 (ptr, ...) @printf(ptr noundef @.str.18, ptr noundef %41)
  %43 = call i64 @Abc_Clock()
  %44 = load i64, ptr %8, align 8
  %45 = sub nsw i64 %43, %44
  call void @Abc_PrintTime(i32 noundef 1, ptr noundef @.str.22, i64 noundef %45)
  %46 = load i32, ptr %9, align 4
  %47 = icmp eq i32 %46, 0
  br i1 %47, label %48, label %50

48:                                               ; preds = %40
  %49 = load ptr, ptr %10, align 8
  store ptr %49, ptr %2, align 8
  br label %52

50:                                               ; preds = %40
  br label %51

51:                                               ; preds = %50, %1
  store ptr null, ptr %2, align 8
  br label %52

52:                                               ; preds = %51, %48
  %53 = load ptr, ptr %2, align 8
  ret ptr %53
}