; Function Attrs: nounwind uwtable
define ptr @Acb_NtkSolve(ptr noundef %0) local_unnamed_addr #0 {
  %2 = alloca %struct.timespec, align 8
  %3 = alloca %struct.timespec, align 8
  %4 = alloca ptr, align 8
  %5 = alloca %struct.Prove_ParamsStruct_t_, align 8
  %6 = tail call ptr @Gia_ManToAig(ptr noundef %0, i32 noundef 0) #18
  %7 = tail call ptr @Abc_NtkFromAigPhase(ptr noundef %6) #18
  store ptr %7, ptr %4, align 8
  call void @Prove_ParamsSetDefault(ptr noundef nonnull %5) #18
  %8 = getelementptr inbounds nuw i8, ptr %5, i64 4
  store i32 1, ptr %8, align 4
  %9 = getelementptr inbounds nuw i8, ptr %5, i64 12
  store i32 0, ptr %9, align 4
  call void @Aig_ManStop(ptr noundef %6) #18
  %.not = icmp eq ptr %7, null
  br i1 %.not, label %38, label %10

10:                                               ; preds = %1
  call void @llvm.lifetime.start.p0(i64 16, ptr nonnull %3)
  %11 = call i32 @clock_gettime(i32 noundef 1, ptr noundef nonnull %3) #18
  %12 = icmp slt i32 %11, 0
  br i1 %12, label %Abc_Clock.exit, label %13

13:                                               ; preds = %10
  %14 = load i64, ptr %3, align 8
  %.neg14 = mul i64 %14, -1000000
  %15 = getelementptr inbounds nuw i8, ptr %3, i64 8
  %16 = load i64, ptr %15, align 8
  %.neg = sdiv i64 %16, -1000
  %.neg15 = add i64 %.neg, %.neg14
  br label %Abc_Clock.exit

Abc_Clock.exit:                                   ; preds = %10, %13
  %.0.i.neg = phi i64 [ %.neg15, %13 ], [ 1, %10 ]
  call void @llvm.lifetime.end.p0(i64 16, ptr nonnull %3)
  %17 = call i32 @Abc_NtkIvyProve(ptr noundef nonnull %4, ptr noundef nonnull %5) #18
  %18 = load ptr, ptr %4, align 8
  %19 = getelementptr inbounds nuw i8, ptr %18, i64 304
  %20 = load ptr, ptr %19, align 8
  store ptr null, ptr %19, align 8
  call void @Abc_NtkDelete(ptr noundef %18) #18
  %21 = icmp eq i32 %17, 1
  %22 = icmp eq i32 %17, 0
  %23 = select i1 %22, ptr @.str.20, ptr @.str.21
  %24 = select i1 %21, ptr @.str.19, ptr %23
  %25 = call i32 (ptr, ...) @printf(ptr noundef nonnull dereferenceable(1) @.str.18, ptr noundef nonnull %24)
  call void @llvm.lifetime.start.p0(i64 16, ptr nonnull %2)
  %26 = call i32 @clock_gettime(i32 noundef 1, ptr noundef nonnull %2) #18
  %27 = icmp slt i32 %26, 0
  br i1 %27, label %Abc_Clock.exit13, label %28

28:                                               ; preds = %Abc_Clock.exit
  %29 = load i64, ptr %2, align 8
  %30 = mul nsw i64 %29, 1000000
  %31 = getelementptr inbounds nuw i8, ptr %2, i64 8
  %32 = load i64, ptr %31, align 8
  %33 = sdiv i64 %32, 1000
  %34 = add nsw i64 %33, %30
  br label %Abc_Clock.exit13

Abc_Clock.exit13:                                 ; preds = %Abc_Clock.exit, %28
  %.0.i12 = phi i64 [ %34, %28 ], [ -1, %Abc_Clock.exit ]
  call void @llvm.lifetime.end.p0(i64 16, ptr nonnull %2)
  %35 = add i64 %.0.i12, %.0.i.neg
  call void (i32, ptr, ...) @Abc_Print(i32 poison, ptr noundef nonnull @.str.33, ptr noundef nonnull @.str.22)
  %36 = sitofp i64 %35 to double
  %37 = fdiv double %36, 1.000000e+06
  call void (i32, ptr, ...) @Abc_Print(i32 poison, ptr noundef nonnull @.str.34, double noundef %37)
  br i1 %22, label %39, label %38

38:                                               ; preds = %Abc_Clock.exit13, %1
  br label %39

39:                                               ; preds = %Abc_Clock.exit13, %38
  %.0 = phi ptr [ null, %38 ], [ %20, %Abc_Clock.exit13 ]
  ret ptr %.0
}